(dp0
S'\x10'
p1
I0
sS'\x97'
p2
I1
sS' '
p3
I2
sS'$'
p4
I3
sS'('
p5
I4
sS'\xab'
p6
I5
sS','
p7
I6
sS'0'
p8
I7
sS'\xb3'
p9
I8
sS'4'
p10
I9
sS'8'
p11
I10
sS'\xbb'
p12
I11
sS'<'
p13
I12
sS'\xbf'
p14
I13
sS'@'
p15
I14
sS'\xc3'
p16
I15
sS'D'
p17
I16
sS'H'
p18
I17
sS'L'
p19
I18
sS'P'
p20
I19
sS'T'
p21
I20
sS'\\'
p22
I21
sS'`'
p23
I22
sS'\xe3'
p24
I23
sS'd'
p25
I24
sS'h'
p26
I25
sS'l'
p27
I26
sS'p'
p28
I27
sS't'
p29
I28
sS'\xf7'
p30
I29
sS'x'
p31
I30
sS'|'
p32
I31
sS'\xff'
p33
I32
sS'\x03'
p34
I33
sS'\x17'
p35
I34
sS'\x9c'
p36
I35
sS'#'
p37
I36
sS"'"
p38
I37
sS'+'
p39
I38
sS'/'
p40
I39
sS'\xb0'
p41
I40
sS'3'
p42
I41
sS'7'
p43
I42
sS'?'
p44
I43
sS'C'
p45
I44
sS'G'
p46
I45
sS'K'
p47
I46
sS'O'
p48
I47
sS'S'
p49
I48
sS'['
p50
I49
sS'_'
p51
I50
sS'c'
p52
I51
sS'g'
p53
I52
sS'k'
p54
I53
sS'o'
p55
I54
sS's'
p56
I55
sS'w'
p57
I56
sS'{'
p58
I57
sS'\x81'
p59
I58
sS'\x02'
p60
I59
sS'\x85'
p61
I60
sS'\x91'
p62
I61
sS'\x16'
p63
I62
sS'\x1e'
p64
I63
sS'"'
p65
I64
sS'&'
p66
I65
sS'*'
p67
I66
sS'.'
p68
I67
sS'2'
p69
I68
sS'6'
p70
I69
sS':'
p71
I70
sS'>'
p72
I71
sS'B'
p73
I72
sS'F'
p74
I73
sS'\xc9'
p75
I74
sS'J'
p76
I75
sS'N'
p77
I76
sS'R'
p78
I77
sS'V'
p79
I78
sS'^'
p80
I79
sS'b'
p81
I80
sS'f'
p82
I81
sS'\xe9'
p83
I82
sS'j'
p84
I83
sS'n'
p85
I84
sS'r'
p86
I85
sS'v'
p87
I86
sS'z'
p88
I87
sS'~'
p89
I88
sS'\x01'
p90
I89
sS'\x15'
p91
I90
sS'\x19'
p92
I91
sS'\x9e'
p93
I92
sS'!'
p94
I93
sS'%'
p95
I94
sS')'
p96
I95
sS'\xaa'
p97
I96
sS'-'
p98
I97
sS'1'
p99
I98
sS'5'
p100
I99
sS'9'
p101
I100
sS'='
p102
I101
sS'A'
p103
I102
sS'\xc2'
p104
I103
sS'E'
p105
I104
sS'I'
p106
I105
sS'M'
p107
I106
sS'Q'
p108
I107
sS'U'
p109
I108
sS'\xda'
p110
I109
sS']'
p111
I110
sS'a'
p112
I111
sS'e'
p113
I112
sS'\xe6'
p114
I113
sS'i'
p115
I114
sS'm'
p116
I115
sS'q'
p117
I116
sS'u'
p118
I117
sS'y'
p119
I118
sS'}'
p120
I119
s.