(dp0
S'R'
p1
(dp2
S'jig'
p3
I0
sS'waltz'
p4
I1
sS'three-two'
p5
I2
sS'songair'
p6
I3
sS'slowair'
p7
I4
sS'Strathspey'
p8
I10
sS'polka'
p9
I6
sS'Air'
p10
I7
sS'barndance'
p11
I8
sS'slide'
p12
I9
sS'slipjig'
p13
I11
sS'hornpipe'
p14
I5
sS'strathspey'
p15
I12
sS'mazurka'
p16
I13
sS'reel'
p17
I14
sS'highlandfling'
p18
I15
sS'quickstep'
p19
I16
ssS'M'
p20
(dp21
S'3/2'
p22
I8
sS'7/8'
p23
I0
sS'11/8'
p24
I5
sS'2/4'
p25
I14
sS'5/8'
p26
I3
sS'4/4'
p27
I4
sS'6/4'
p28
I6
sS'13/8'
p29
I7
sS'5/4'
p30
I1
sS'3/4'
p31
I9
sS'9/8'
p32
I10
sS'12/8'
p33
I11
sS'2/2'
p34
I12
sS'9/4'
p35
I13
sS'6/8'
p36
I2
ssS'L'
p37
(dp38
S'1/4'
p39
I0
sS'1/16'
p40
I1
sS'1/8'
p41
I2
ssS'K_key'
p42
(dp43
S'-5'
p44
I3
sS'0'
p45
I4
sS'-1'
p46
I11
sS'1'
p47
I0
sS'-4'
p48
I2
sS'3'
p49
I5
sS'-6'
p50
I1
sS'5'
p51
I7
sS'4'
p52
I8
sS'-3'
p53
I9
sS'-2'
p54
I10
sS'2'
p55
I6
ssS'K_mode'
p56
(dp57
g47
I0
sg45
I1
sg49
I2
sg55
I3
sg51
I4
sg52
I5
ss.